target datalayout = "e-m:e-p270:32:32-p271:32:32-p272:64:64-i64:64-i128:128-f80:128-n8:16:32:64-S128"
target triple = "x86_64-pc-linux-gnu"

%struct.VVCTask = type { %union.anon.2, i32, i32, i32, i32, ptr, %struct.ProgressListener, [2 x [29 x %struct.ProgressListener]], ptr, ptr, i32, [10 x i8], i8 }
%union.anon.2 = type { %struct.FFTask }
%struct.FFTask = type { ptr, i32 }
%struct.ProgressListener = type { %struct.VVCProgressListener, ptr, ptr }
%struct.VVCProgressListener = type { i32, i32, ptr, ptr }
%struct.VVCFrameContext = type { ptr, [17 x %struct.VVCFrame], ptr, ptr, %struct.VVCFrameParamSets, ptr, i32, i32, ptr, %struct.VVCDSPContext, %struct.VideoDSPContext, ptr, i64, ptr, ptr, ptr, ptr, %struct.anon }
%struct.VVCFrame = type { ptr, ptr, ptr, ptr, ptr, ptr, i32, i32, i32, %struct.VVCWindow, i32, i32, ptr, ptr, i16, i8, ptr }
%struct.VVCWindow = type { i16, i16, i16, i16 }
%struct.VVCFrameParamSets = type { ptr, ptr, %struct.VVCPH, [8 x ptr], %struct.VVCLMCS, ptr }
%struct.VVCPH = type { ptr, ptr, i32, i32, i8, [3 x i16], i8, [3 x i16], %struct.PredWeightTable }
%struct.PredWeightTable = type { [2 x i8], [2 x i8], [2 x [2 x [15 x i8]]], [2 x [3 x [15 x i16]]], [2 x [3 x [15 x i16]]] }
%struct.VVCLMCS = type { i8, i8, %union.anon, %union.anon, [17 x i16], [16 x i16] }
%union.anon = type { [4096 x i16] }
%struct.VVCDSPContext = type { %struct.VVCInterDSPContext, %struct.VVCIntraDSPContext, %struct.VVCItxDSPContext, %struct.VVCLMCSDSPContext, %struct.VVCLFDSPContext, %struct.VVCSAODSPContext, %struct.VVCALFDSPContext }
%struct.VVCInterDSPContext = type { [2 x [7 x [2 x [2 x ptr]]]], [2 x [7 x [2 x [2 x ptr]]]], [2 x [7 x [2 x [2 x ptr]]]], [2 x [7 x ptr]], [2 x [7 x ptr]], [2 x [7 x ptr]], ptr, ptr, ptr, ptr, ptr, ptr, ptr, ptr, ptr, ptr, ptr, [2 x [2 x ptr]] }
%struct.VVCIntraDSPContext = type { ptr, ptr, ptr, ptr, ptr, ptr, ptr, ptr, ptr, ptr }
%struct.VVCItxDSPContext = type { ptr, ptr, [3 x [6 x ptr]], ptr, ptr }
%struct.VVCLMCSDSPContext = type { ptr }
%struct.VVCLFDSPContext = type { [2 x ptr], [2 x ptr], [2 x ptr] }
%struct.VVCSAODSPContext = type { [9 x ptr], [9 x ptr], [2 x ptr] }
%struct.VVCALFDSPContext = type { [2 x ptr], ptr, ptr, ptr }
%struct.VideoDSPContext = type { ptr, ptr }
%struct.anon = type { ptr, ptr, ptr, ptr, [2 x ptr], [2 x ptr], [2 x ptr], [2 x ptr], [2 x ptr], [3 x ptr], ptr, ptr, [2 x ptr], ptr, ptr, [2 x ptr], ptr, ptr, ptr, [2 x ptr], ptr, [3 x ptr], ptr, [2 x ptr], [2 x ptr], [2 x ptr], [2 x [3 x ptr]], [2 x ptr], [2 x ptr], [3 x ptr], [3 x ptr], [3 x [2 x ptr]], [3 x [2 x ptr]], ptr, ptr, ptr, [3 x ptr], %struct.anon.0 }
%struct.anon.0 = type { i32, i32, i32, i32, i32, i32, i32, i32, i32, i32, i32, i32 }
%struct.VVCLocalContext = type { i8, i8, i8, i8, i32, i32, [4 x i8], [3276800 x i8], [16384 x i16], [16384 x i16], [16384 x i16], [32768 x i8], [332800 x i8], [368640 x i8], [368640 x i8], [17424 x i32], %struct.anon.3, %struct.anon.4, ptr, [2 x [1024 x %struct.ReconstructedArea]], [2 x i32], %struct.NeighbourAvailable, i32, ptr, ptr, ptr, ptr }
%struct.anon.3 = type { i32, i8, i32, i32, i32, [3 x i32], i32, i32, i32, i32, i32, i32 }
%struct.anon.4 = type { i32, i32, i32 }
%struct.ReconstructedArea = type { i32, i32, i32, i32 }
%struct.NeighbourAvailable = type { i32, i32, i32, i32, i32 }
%struct.VVCFrameThread = type { i32, ptr, ptr, i32, i32, i32, i32, i32, i32, [2 x i32], %union.pthread_mutex_t, %union.pthread_cond_t }
%union.pthread_mutex_t = type { %struct.__pthread_mutex_s }
%struct.__pthread_mutex_s = type { i32, i32, i32, i32, i32, i16, i16, %struct.__pthread_internal_list }
%struct.__pthread_internal_list = type { ptr, ptr }
%union.pthread_cond_t = type { %struct.__pthread_cond_s }
%struct.__pthread_cond_s = type { %union.__atomic_wide_counter, %union.__atomic_wide_counter, [2 x i32], [2 x i32], i32, i32, [2 x i32] }
%union.__atomic_wide_counter = type { i64 }
%struct.SliceContext = type { i32, %struct.VVCSH, ptr, i32, ptr, ptr }
%struct.VVCSH = type { ptr, i32, ptr, %struct.PredWeightTable, [2 x i8], i8, %struct.DBParams, [2 x i8], [2 x i8], [2 x i8], [2 x i8], i8, i8, [4050 x i32] }
%struct.DBParams = type { [3 x i8], [3 x i8] }
%struct.H266RawSliceHeader = type { %struct.H266RawNALUnitHeader, i8, %struct.H266RawPictureHeader, i16, i16, [16 x i8], i8, i8, i8, i8, i8, [8 x i8], i8, i8, i8, i8, i8, i8, i8, i8, i8, %struct.H266RefPicLists, i8, [2 x i8], i8, i8, i8, %struct.H266RawPredWeightTable, i8, i8, i8, i8, i8, i8, i8, i8, i8, i8, i8, i8, i8, i8, i8, i8, i8, i8, i8, i8, i16, [256 x i8], i8, [4050 x i32], i16, i32, [2 x i8] }
%struct.H266RawNALUnitHeader = type { i8, i8, i8, i8 }
%struct.H266RawPictureHeader = type { i8, i8, i8, i8, i8, i8, i16, i8, [16 x i8], i8, i8, i8, i8, [8 x i8], i8, i8, i8, i8, i8, i8, i8, i8, i8, i8, i8, i8, i8, i8, [3 x i16], i8, [3 x i16], i8, %struct.H266RefPicLists, i8, i8, i8, i8, i8, i8, i8, i8, i8, i8, i8, i8, i8, i8, i8, i8, i8, i8, i8, i8, i8, i8, i8, i8, i8, %struct.H266RawPredWeightTable, i8, i8, i8, i8, i8, i8, i8, i8, i8, i8, i8, i8, i8, [256 x i8] }
%struct.H266RefPicLists = type { [2 x i8], [2 x i8], [2 x %struct.H266RefPicListStruct], [2 x [29 x i16]], [2 x [29 x i8]], [2 x [29 x i16]] }
%struct.H266RefPicListStruct = type { i8, i8, [29 x i8], [29 x i8], [29 x i8], [29 x i8], [29 x i8], [29 x i8] }
%struct.H266RawPredWeightTable = type { i8, i8, i8, [15 x i8], [15 x i8], [15 x i8], [15 x i8], [15 x [2 x i8]], [15 x [2 x i16]], i8, [15 x i8], [15 x i8], [15 x i8], [15 x i8], [15 x [2 x i8]], [15 x [2 x i16]], i8, i8 }

; Function Attrs: nounwind uwtable
define internal i32 @run_deblock_v(ptr noundef %0, ptr noundef %1, ptr noundef %2) #0 {
  %4 = alloca ptr, align 8
  %5 = alloca ptr, align 8
  %6 = alloca ptr, align 8
  %7 = alloca ptr, align 8
  %8 = alloca ptr, align 8
  %9 = alloca i32, align 4
  %10 = alloca i32, align 4
  %11 = alloca i32, align 4
  store ptr %0, ptr %4, align 8, !tbaa !4
  store ptr %1, ptr %5, align 8, !tbaa !21
  store ptr %2, ptr %6, align 8, !tbaa !19
  call void @llvm.lifetime.start.p0(i64 8, ptr %7) #7
  %12 = load ptr, ptr %5, align 8, !tbaa !21
  %13 = getelementptr inbounds nuw %struct.VVCLocalContext, ptr %12, i32 0, i32 24
  %14 = load ptr, ptr %13, align 8, !tbaa !69
  store ptr %14, ptr %7, align 8, !tbaa !82
  call void @llvm.lifetime.start.p0(i64 8, ptr %8) #7
  %15 = load ptr, ptr %7, align 8, !tbaa !82
  %16 = getelementptr inbounds nuw %struct.VVCFrameContext, ptr %15, i32 0, i32 11
  %17 = load ptr, ptr %16, align 8, !tbaa !31
  store ptr %17, ptr %8, align 8, !tbaa !68
  call void @llvm.lifetime.start.p0(i64 4, ptr %9) #7
  %18 = load ptr, ptr %8, align 8, !tbaa !68
  %19 = getelementptr inbounds nuw %struct.VVCFrameThread, ptr %18, i32 0, i32 3
  %20 = load i32, ptr %19, align 8, !tbaa !96
  store i32 %20, ptr %9, align 4, !tbaa !9
  call void @llvm.lifetime.start.p0(i64 4, ptr %10) #7
  %21 = load ptr, ptr %6, align 8, !tbaa !19
  %22 = getelementptr inbounds nuw %struct.VVCTask, ptr %21, i32 0, i32 2
  %23 = load i32, ptr %22, align 4, !tbaa !78
  %24 = load i32, ptr %9, align 4, !tbaa !9
  %25 = mul nsw i32 %23, %24
  store i32 %25, ptr %10, align 4, !tbaa !9
  call void @llvm.lifetime.start.p0(i64 4, ptr %11) #7
  %26 = load ptr, ptr %6, align 8, !tbaa !19
  %27 = getelementptr inbounds nuw %struct.VVCTask, ptr %26, i32 0, i32 3
  %28 = load i32, ptr %27, align 8, !tbaa !79
  %29 = load i32, ptr %9, align 4, !tbaa !9
  %30 = mul nsw i32 %28, %29
  store i32 %30, ptr %11, align 4, !tbaa !9
  %31 = load ptr, ptr %5, align 8, !tbaa !21
  %32 = getelementptr inbounds nuw %struct.VVCLocalContext, ptr %31, i32 0, i32 23
  %33 = load ptr, ptr %32, align 16, !tbaa !149
  %34 = getelementptr inbounds nuw %struct.SliceContext, ptr %33, i32 0, i32 1
  %35 = getelementptr inbounds nuw %struct.VVCSH, ptr %34, i32 0, i32 0
  %36 = load ptr, ptr %35, align 8, !tbaa !161
  %37 = getelementptr inbounds nuw %struct.H266RawSliceHeader, ptr %36, i32 0, i32 36
  %38 = load i8, ptr %37, align 2, !tbaa !162
  %39 = icmp ne i8 %38, 0
  br i1 %39, label %59, label %40

40:                                               ; preds = %3
  %41 = load ptr, ptr %5, align 8, !tbaa !21
  %42 = load i32, ptr %10, align 4, !tbaa !9
  %43 = load i32, ptr %11, align 4, !tbaa !9
  %44 = load ptr, ptr %6, align 8, !tbaa !19
  %45 = getelementptr inbounds nuw %struct.VVCTask, ptr %44, i32 0, i32 2
  %46 = load i32, ptr %45, align 4, !tbaa !78
  %47 = load ptr, ptr %6, align 8, !tbaa !19
  %48 = getelementptr inbounds nuw %struct.VVCTask, ptr %47, i32 0, i32 3
  %49 = load i32, ptr %48, align 8, !tbaa !79
  %50 = load ptr, ptr %6, align 8, !tbaa !19
  %51 = getelementptr inbounds nuw %struct.VVCTask, ptr %50, i32 0, i32 4
  %52 = load i32, ptr %51, align 4, !tbaa !108
  call void @ff_vvc_decode_neighbour(ptr noundef %41, i32 noundef %42, i32 noundef %43, i32 noundef %46, i32 noundef %49, i32 noundef %52)
  %53 = load ptr, ptr %5, align 8, !tbaa !21
  %54 = load i32, ptr %10, align 4, !tbaa !9
  %55 = load i32, ptr %11, align 4, !tbaa !9
  %56 = load ptr, ptr %6, align 8, !tbaa !19
  %57 = getelementptr inbounds nuw %struct.VVCTask, ptr %56, i32 0, i32 4
  %58 = load i32, ptr %57, align 4, !tbaa !108
  call void @ff_vvc_deblock_vertical(ptr noundef %53, i32 noundef %54, i32 noundef %55, i32 noundef %58)
  br label %59

59:                                               ; preds = %40, %3
  call void @llvm.lifetime.end.p0(i64 4, ptr %11) #7
  call void @llvm.lifetime.end.p0(i64 4, ptr %10) #7
  call void @llvm.lifetime.end.p0(i64 4, ptr %9) #7
  call void @llvm.lifetime.end.p0(i64 8, ptr %8) #7
  call void @llvm.lifetime.end.p0(i64 8, ptr %7) #7
  ret i32 0
}