; Function Attrs: nounwind uwtable
define internal noundef i32 @run_deblock_v(ptr readnone captures(none) %0, ptr noundef %1, ptr noundef readonly captures(none) %2) #0 {
  %4 = getelementptr inbounds nuw i8, ptr %1, i64 4580544
  %5 = load ptr, ptr %4, align 16, !tbaa !68
  %6 = getelementptr inbounds nuw i8, ptr %5, i64 8
  %7 = load ptr, ptr %6, align 8, !tbaa !182
  %8 = getelementptr inbounds nuw i8, ptr %7, i64 2334
  %9 = load i8, ptr %8, align 2, !tbaa !183
  %.not = icmp eq i8 %9, 0
  br i1 %.not, label %10, label %26

10:                                               ; preds = %3
  %11 = getelementptr inbounds nuw i8, ptr %2, i64 24
  %12 = load i32, ptr %11, align 8, !tbaa !83
  %13 = getelementptr inbounds nuw i8, ptr %1, i64 4580552
  %14 = load ptr, ptr %13, align 8, !tbaa !60
  %15 = getelementptr inbounds nuw i8, ptr %14, i64 21288
  %16 = load ptr, ptr %15, align 8, !tbaa !23
  %17 = getelementptr inbounds nuw i8, ptr %16, i64 24
  %18 = load i32, ptr %17, align 8, !tbaa !97
  %19 = mul nsw i32 %18, %12
  %20 = getelementptr inbounds nuw i8, ptr %2, i64 20
  %21 = load i32, ptr %20, align 4, !tbaa !82
  %22 = mul nsw i32 %21, %18
  %23 = getelementptr inbounds nuw i8, ptr %2, i64 28
  %24 = load i32, ptr %23, align 4, !tbaa !111
  tail call void @ff_vvc_decode_neighbour(ptr noundef nonnull %1, i32 noundef %22, i32 noundef %19, i32 noundef %21, i32 noundef %12, i32 noundef %24) #7
  %25 = load i32, ptr %23, align 4, !tbaa !111
  tail call void @ff_vvc_deblock_vertical(ptr noundef nonnull %1, i32 noundef %22, i32 noundef %19, i32 noundef %25) #7
  br label %26

26:                                               ; preds = %10, %3
  ret i32 0
}